#include <math.h>
#include <stdio.h>
#include <stdlib.h>
#include <string.h>

void main()
{
	int i,j=0,a[100][100],s[1000],b[100]={0},k=0;
	for(i=0;i<1000;i++)
	{
		scanf("%d",&s[i]);
		if(s[i]==-1) break;
	}
	for(i=0;s[i]!=-1;i++)
	{  
		if(s[i]!=0)
		{
		   a[k][j]=s[i];
		   j++;
		}
		else
		{
			a[k][j]=0;
			j=0;
			k++;
		}
	}
	a[k][0]=-1;
	for(i=0;a[i][0]!=-1;i++)
	{
		for(j=0;a[i][j]!=0;j++)
		{
			for(k=0;a[i][k]!=0;k++)
			{
				if(a[i][j]==2*a[i][k])
					b[i]++;
			}
		}
		printf("%d\n",b[i]);
	}
}
	
